; Function Attrs: mustprogress uwtable
define hidden void @_ZN4lean24initialize_ll_infer_typeEv() local_unnamed_addr #0 personality ptr @__gxx_personality_v0 {
  %1 = alloca %"class.lean::list_ref.66", align 8
  %2 = alloca %"class.lean::name", align 8
  %3 = alloca %"class.lean::name", align 8
  %4 = tail call noalias noundef nonnull dereferenceable(8) ptr @_Znwm(i64 noundef 8) #18
  call void @llvm.lifetime.start.p0(i64 8, ptr nonnull %3) #16
  call void @llvm.lifetime.start.p0(i64 8, ptr nonnull %2) #16
  store ptr inttoptr (i64 1 to ptr), ptr %2, align 8, !tbaa !16
  invoke void @_ZN4lean4nameC2ERKS0_PKc(ptr noundef nonnull align 8 dereferenceable(8) %3, ptr noundef nonnull align 8 dereferenceable(8) %2, ptr noundef nonnull @.str)
          to label %5 unwind label %19

5:                                                ; preds = %0
  %6 = load ptr, ptr %2, align 8, !tbaa !16
  %7 = ptrtoint ptr %6 to i64
  %8 = and i64 %7, 1
  %.not.i.i.i = icmp eq i64 %8, 0
  br i1 %.not.i.i.i, label %9, label %21

9:                                                ; preds = %5
  %10 = load i32, ptr %6, align 4, !tbaa !18
  %11 = icmp sgt i32 %10, 1
  br i1 %11, label %12, label %14, !prof !21

12:                                               ; preds = %9
  %13 = add nsw i32 %10, -1
  store i32 %13, ptr %6, align 4, !tbaa !18
  br label %21

14:                                               ; preds = %9
  %.not.i.i.i.i = icmp eq i32 %10, 0
  br i1 %.not.i.i.i.i, label %21, label %15

15:                                               ; preds = %14
  invoke void @lean_dec_ref_cold(ptr noundef nonnull %6)
          to label %21 unwind label %16

16:                                               ; preds = %15
  %17 = landingpad { ptr, i32 }
          catch ptr null
  %18 = extractvalue { ptr, i32 } %17, 0
  call void @__clang_call_terminate(ptr %18) #17
  unreachable

19:                                               ; preds = %0
  %20 = landingpad { ptr, i32 }
          cleanup
  call void @_ZN4lean10object_refD2Ev(ptr noundef nonnull align 8 dereferenceable(8) %2) #16
  call void @llvm.lifetime.end.p0(i64 8, ptr nonnull %2) #16
  br label %.body

21:                                               ; preds = %15, %14, %12, %5
  call void @llvm.lifetime.end.p0(i64 8, ptr nonnull %2) #16
  call void @llvm.lifetime.start.p0(i64 8, ptr nonnull %1) #16, !noalias !63
  store ptr inttoptr (i64 1 to ptr), ptr %1, align 8, !tbaa !16, !noalias !63
  invoke void @_ZN4lean8mk_constERKNS_4nameERKNS_8list_refINS_5levelEEE(ptr dead_on_unwind nonnull writable sret(%"class.lean::expr") align 8 %4, ptr noundef nonnull align 8 dereferenceable(8) %3, ptr noundef nonnull align 8 dereferenceable(8) %1)
          to label %_ZN4lean11mk_constantERKNS_4nameERKNS_8list_refINS_5levelEEE.exit.i unwind label %.body6

_ZN4lean11mk_constantERKNS_4nameERKNS_8list_refINS_5levelEEE.exit.i: ; preds = %21
  %22 = load ptr, ptr %1, align 8, !tbaa !16, !noalias !63
  %23 = ptrtoint ptr %22 to i64
  %24 = and i64 %23, 1
  %.not.i.i.i4 = icmp eq i64 %24, 0
  br i1 %.not.i.i.i4, label %25, label %36

25:                                               ; preds = %_ZN4lean11mk_constantERKNS_4nameERKNS_8list_refINS_5levelEEE.exit.i
  %26 = load i32, ptr %22, align 4, !tbaa !18
  %27 = icmp sgt i32 %26, 1
  br i1 %27, label %28, label %30, !prof !21

28:                                               ; preds = %25
  %29 = add nsw i32 %26, -1
  store i32 %29, ptr %22, align 4, !tbaa !18
  br label %36

30:                                               ; preds = %25
  %.not.i.i.i.i5 = icmp eq i32 %26, 0
  br i1 %.not.i.i.i.i5, label %36, label %31

31:                                               ; preds = %30
  invoke void @lean_dec_ref_cold(ptr noundef nonnull %22)
          to label %36 unwind label %32

32:                                               ; preds = %31
  %33 = landingpad { ptr, i32 }
          catch ptr null
  %34 = extractvalue { ptr, i32 } %33, 0
  call void @__clang_call_terminate(ptr %34) #17
  unreachable

.body6:                                           ; preds = %21
  %35 = landingpad { ptr, i32 }
          cleanup
  call void @_ZN4lean10object_refD2Ev(ptr noundef nonnull align 8 dereferenceable(8) %1) #16
  call void @llvm.lifetime.end.p0(i64 8, ptr nonnull %1) #16, !noalias !63
  call void @_ZN4lean10object_refD2Ev(ptr noundef nonnull align 8 dereferenceable(8) %3) #16
  br label %.body

36:                                               ; preds = %31, %30, %28, %_ZN4lean11mk_constantERKNS_4nameERKNS_8list_refINS_5levelEEE.exit.i
  call void @llvm.lifetime.end.p0(i64 8, ptr nonnull %1) #16, !noalias !63
  store ptr %4, ptr @_ZN4leanL5g_botE, align 8, !tbaa !66
  %37 = load ptr, ptr %3, align 8, !tbaa !16
  %38 = ptrtoint ptr %37 to i64
  %39 = and i64 %38, 1
  %.not.i.i = icmp eq i64 %39, 0
  br i1 %.not.i.i, label %40, label %_ZN4lean10object_refD2Ev.exit

40:                                               ; preds = %36
  %41 = load i32, ptr %37, align 4, !tbaa !18
  %42 = icmp sgt i32 %41, 1
  br i1 %42, label %43, label %45, !prof !21

43:                                               ; preds = %40
  %44 = add nsw i32 %41, -1
  store i32 %44, ptr %37, align 4, !tbaa !18
  br label %_ZN4lean10object_refD2Ev.exit

45:                                               ; preds = %40
  %.not.i.i.i8 = icmp eq i32 %41, 0
  br i1 %.not.i.i.i8, label %_ZN4lean10object_refD2Ev.exit, label %46

46:                                               ; preds = %45
  invoke void @lean_dec_ref_cold(ptr noundef nonnull %37)
          to label %._ZN4lean10object_refD2Ev.exit_crit_edge unwind label %47

._ZN4lean10object_refD2Ev.exit_crit_edge:         ; preds = %46
  %.pre = load ptr, ptr @_ZN4leanL5g_botE, align 8, !tbaa !66
  br label %_ZN4lean10object_refD2Ev.exit

47:                                               ; preds = %46
  %48 = landingpad { ptr, i32 }
          catch ptr null
  %49 = extractvalue { ptr, i32 } %48, 0
  call void @__clang_call_terminate(ptr %49) #17
  unreachable

_ZN4lean10object_refD2Ev.exit:                    ; preds = %._ZN4lean10object_refD2Ev.exit_crit_edge, %36, %43, %45
  %50 = phi ptr [ %.pre, %._ZN4lean10object_refD2Ev.exit_crit_edge ], [ %4, %36 ], [ %4, %43 ], [ %4, %45 ]
  call void @llvm.lifetime.end.p0(i64 8, ptr nonnull %3) #16
  %51 = load ptr, ptr %50, align 8, !tbaa !16
  call void @lean_mark_persistent(ptr noundef %51)
  ret void

.body:                                            ; preds = %19, %.body6
  %.pn = phi { ptr, i32 } [ %35, %.body6 ], [ %20, %19 ]
  call void @llvm.lifetime.end.p0(i64 8, ptr nonnull %3) #16
  call void @_ZdlPvm(ptr noundef nonnull %4, i64 noundef 8) #19
  resume { ptr, i32 } %.pn
}